target datalayout = "e-m:e-p270:32:32-p271:32:32-p272:64:64-i64:64-i128:128-f80:128-n8:16:32:64-S128"
target triple = "x86_64-pc-linux-gnu"

%"class.ade::Handle" = type { %"class.std::weak_ptr" }
%"class.std::weak_ptr" = type { %"class.std::__weak_ptr" }
%"class.std::__weak_ptr" = type { ptr, %"class.std::__weak_count" }
%"class.std::__weak_count" = type { ptr }
%"class.std::vector" = type { %"struct.std::_Vector_base" }
%"struct.std::_Vector_base" = type { %"struct.std::_Vector_base<int, std::allocator<int>>::_Vector_impl" }
%"struct.std::_Vector_base<int, std::allocator<int>>::_Vector_impl" = type { %"struct.std::_Vector_base<int, std::allocator<int>>::_Vector_impl_data" }
%"struct.std::_Vector_base<int, std::allocator<int>>::_Vector_impl_data" = type { ptr, ptr, ptr }
%"class.std::__cxx11::basic_string" = type { %"struct.std::__cxx11::basic_string<char>::_Alloc_hider", i64, %union.anon }
%"struct.std::__cxx11::basic_string<char>::_Alloc_hider" = type { ptr }
%union.anon = type { i64, [8 x i8] }
%"struct.cv::gimpl::FluidAgent" = type { ptr, %"class.cv::GFluidKernel", %"class.ade::Handle", %"class.std::__cxx11::basic_string", %"class.std::vector", %"class.std::vector", %"class.std::vector.16", %"class.std::vector.21", %"class.std::vector.26", i32, i32 }
%"class.cv::GFluidKernel" = type { i32, i32, i8, %"class.std::function", %"class.std::function.3", %"class.std::function.5", %"class.std::function.7", %"class.std::function.10" }
%"class.std::function" = type { %"class.std::_Function_base", ptr }
%"class.std::_Function_base" = type { %"union.std::_Any_data", ptr }
%"union.std::_Any_data" = type { %"union.std::_Nocopy_types" }
%"union.std::_Nocopy_types" = type { { i64, i64 } }
%"class.std::function.3" = type { %"class.std::_Function_base", ptr }
%"class.std::function.5" = type { %"class.std::_Function_base", ptr }
%"class.std::function.7" = type { %"class.std::_Function_base", ptr }
%"class.std::function.10" = type { %"class.std::_Function_base", ptr }
%"class.std::vector.16" = type { %"struct.std::_Vector_base.17" }
%"struct.std::_Vector_base.17" = type { %"struct.std::_Vector_base<cv::GArg, std::allocator<cv::GArg>>::_Vector_impl" }
%"struct.std::_Vector_base<cv::GArg, std::allocator<cv::GArg>>::_Vector_impl" = type { %"struct.std::_Vector_base<cv::GArg, std::allocator<cv::GArg>>::_Vector_impl_data" }
%"struct.std::_Vector_base<cv::GArg, std::allocator<cv::GArg>>::_Vector_impl_data" = type { ptr, ptr, ptr }
%"class.std::vector.21" = type { %"struct.std::_Vector_base.22" }
%"struct.std::_Vector_base.22" = type { %"struct.std::_Vector_base<cv::gapi::fluid::View, std::allocator<cv::gapi::fluid::View>>::_Vector_impl" }
%"struct.std::_Vector_base<cv::gapi::fluid::View, std::allocator<cv::gapi::fluid::View>>::_Vector_impl" = type { %"struct.std::_Vector_base<cv::gapi::fluid::View, std::allocator<cv::gapi::fluid::View>>::_Vector_impl_data" }
%"struct.std::_Vector_base<cv::gapi::fluid::View, std::allocator<cv::gapi::fluid::View>>::_Vector_impl_data" = type { ptr, ptr, ptr }
%"class.std::vector.26" = type { %"struct.std::_Vector_base.27" }
%"struct.std::_Vector_base.27" = type { %"struct.std::_Vector_base<cv::gapi::fluid::Buffer *, std::allocator<cv::gapi::fluid::Buffer *>>::_Vector_impl" }
%"struct.std::_Vector_base<cv::gapi::fluid::Buffer *, std::allocator<cv::gapi::fluid::Buffer *>>::_Vector_impl" = type { %"struct.std::_Vector_base<cv::gapi::fluid::Buffer *, std::allocator<cv::gapi::fluid::Buffer *>>::_Vector_impl_data" }
%"struct.std::_Vector_base<cv::gapi::fluid::Buffer *, std::allocator<cv::gapi::fluid::Buffer *>>::_Vector_impl_data" = type { ptr, ptr, ptr }
%"class.cv::gapi::fluid::View" = type { %"class.std::unique_ptr.124", ptr }
%"class.std::unique_ptr.124" = type { %"struct.std::__uniq_ptr_data.125" }
%"struct.std::__uniq_ptr_data.125" = type { %"class.std::__uniq_ptr_impl.126" }
%"class.std::__uniq_ptr_impl.126" = type { %"class.std::tuple.127" }
%"class.std::tuple.127" = type { %"struct.std::_Tuple_impl.128" }
%"struct.std::_Tuple_impl.128" = type { %"struct.std::_Head_base.131" }
%"struct.std::_Head_base.131" = type { ptr }
%"class.__gnu_cxx::__normal_iterator.173" = type { ptr }

; Function Attrs: mustprogress nounwind uwtable
define linkonce_odr hidden noundef nonnull align 8 dereferenceable(8) ptr @_ZNSt10_Head_baseILm0EPN2cv4gapi5fluid4View4PrivELb0EE7_M_headERKS6_(ptr noundef nonnull align 8 dereferenceable(8) %0) #7 comdat align 2 {
  %2 = alloca ptr, align 8
  store ptr %0, ptr %2, align 8, !tbaa !819
  %3 = load ptr, ptr %2, align 8, !tbaa !819
  %4 = getelementptr inbounds nuw %"struct.std::_Head_base.131", ptr %3, i32 0, i32 0
  ret ptr %4
}

; Function Attrs: mustprogress nounwind uwtable
define linkonce_odr hidden noundef nonnull align 8 dereferenceable(8) ptr @_ZNSt11_Tuple_implILm0EJPN2cv4gapi5fluid4View4PrivESt14default_deleteIS4_EEE7_M_headERKS8_(ptr noundef nonnull align 8 dereferenceable(8) %0) #7 comdat align 2 {
  %2 = alloca ptr, align 8
  store ptr %0, ptr %2, align 8, !tbaa !817
  %3 = load ptr, ptr %2, align 8, !tbaa !817
  %4 = call noundef nonnull align 8 dereferenceable(8) ptr @_ZNSt10_Head_baseILm0EPN2cv4gapi5fluid4View4PrivELb0EE7_M_headERKS6_(ptr noundef nonnull align 8 dereferenceable(8) %3) #3
  ret ptr %4
}

; Function Attrs: mustprogress nounwind uwtable
define linkonce_odr noundef nonnull align 8 dereferenceable(8) ptr @_ZSt12__get_helperILm0EPN2cv4gapi5fluid4View4PrivEJSt14default_deleteIS4_EEERKT0_RKSt11_Tuple_implIXT_EJS8_DpT1_EE(ptr noundef nonnull align 8 dereferenceable(8) %0) #7 comdat {
  %2 = alloca ptr, align 8
  store ptr %0, ptr %2, align 8, !tbaa !817
  %3 = load ptr, ptr %2, align 8, !tbaa !817
  %4 = call noundef nonnull align 8 dereferenceable(8) ptr @_ZNSt11_Tuple_implILm0EJPN2cv4gapi5fluid4View4PrivESt14default_deleteIS4_EEE7_M_headERKS8_(ptr noundef nonnull align 8 dereferenceable(8) %3) #3
  ret ptr %4
}

; Function Attrs: mustprogress nounwind uwtable
define linkonce_odr noundef nonnull align 8 dereferenceable(8) ptr @_ZSt3getILm0EJPN2cv4gapi5fluid4View4PrivESt14default_deleteIS4_EEERKNSt13tuple_elementIXT_ESt5tupleIJDpT0_EEE4typeERKSC_(ptr noundef nonnull align 8 dereferenceable(8) %0) #7 comdat {
  %2 = alloca ptr, align 8
  store ptr %0, ptr %2, align 8, !tbaa !815
  %3 = load ptr, ptr %2, align 8, !tbaa !815
  %4 = call noundef nonnull align 8 dereferenceable(8) ptr @_ZSt12__get_helperILm0EPN2cv4gapi5fluid4View4PrivEJSt14default_deleteIS4_EEERKT0_RKSt11_Tuple_implIXT_EJS8_DpT1_EE(ptr noundef nonnull align 8 dereferenceable(8) %3) #3
  ret ptr %4
}

; Function Attrs: mustprogress nounwind uwtable
define linkonce_odr hidden noundef ptr @_ZNKSt15__uniq_ptr_implIN2cv4gapi5fluid4View4PrivESt14default_deleteIS4_EE6_M_ptrEv(ptr noundef nonnull align 8 dereferenceable(8) %0) #7 comdat align 2 {
  %2 = alloca ptr, align 8
  store ptr %0, ptr %2, align 8, !tbaa !812
  %3 = load ptr, ptr %2, align 8
  %4 = getelementptr inbounds nuw %"class.std::__uniq_ptr_impl.126", ptr %3, i32 0, i32 0
  %5 = call noundef nonnull align 8 dereferenceable(8) ptr @_ZSt3getILm0EJPN2cv4gapi5fluid4View4PrivESt14default_deleteIS4_EEERKNSt13tuple_elementIXT_ESt5tupleIJDpT0_EEE4typeERKSC_(ptr noundef nonnull align 8 dereferenceable(8) %4) #3
  %6 = load ptr, ptr %5, align 8, !tbaa !814
  ret ptr %6
}

; Function Attrs: mustprogress nounwind uwtable
define linkonce_odr hidden noundef ptr @_ZNKSt10unique_ptrIN2cv4gapi5fluid4View4PrivESt14default_deleteIS4_EE3getEv(ptr noundef nonnull align 8 dereferenceable(8) %0) #7 comdat align 2 {
  %2 = alloca ptr, align 8
  store ptr %0, ptr %2, align 8, !tbaa !808
  %3 = load ptr, ptr %2, align 8
  %4 = getelementptr inbounds nuw %"class.std::unique_ptr.124", ptr %3, i32 0, i32 0
  %5 = call noundef ptr @_ZNKSt15__uniq_ptr_implIN2cv4gapi5fluid4View4PrivESt14default_deleteIS4_EE6_M_ptrEv(ptr noundef nonnull align 8 dereferenceable(8) %4) #3
  ret ptr %5
}

; Function Attrs: mustprogress nounwind uwtable
define linkonce_odr hidden noundef zeroext i1 @_ZNKSt10unique_ptrIN2cv4gapi5fluid4View4PrivESt14default_deleteIS4_EEcvbEv(ptr noundef nonnull align 8 dereferenceable(8) %0) #7 comdat align 2 {
  %2 = alloca ptr, align 8
  store ptr %0, ptr %2, align 8, !tbaa !808
  %3 = load ptr, ptr %2, align 8
  %4 = call noundef ptr @_ZNKSt10unique_ptrIN2cv4gapi5fluid4View4PrivESt14default_deleteIS4_EE3getEv(ptr noundef nonnull align 8 dereferenceable(8) %3) #3
  %5 = icmp eq ptr %4, null
  %6 = select i1 %5, i1 false, i1 true
  ret i1 %6
}

; Function Attrs: inlinehint mustprogress nounwind uwtable
define linkonce_odr noundef zeroext i1 @_ZStneIN2cv4gapi5fluid4View4PrivESt14default_deleteIS4_EEbRKSt10unique_ptrIT_T0_EDn(ptr noundef nonnull align 8 dereferenceable(8) %0, ptr %1) #8 comdat {
  %3 = alloca ptr, align 8
  %4 = alloca ptr, align 8
  store ptr %0, ptr %3, align 8, !tbaa !808
  store ptr %1, ptr %4, align 8, !tbaa !810
  %5 = load ptr, ptr %3, align 8, !tbaa !808
  %6 = call noundef zeroext i1 @_ZNKSt10unique_ptrIN2cv4gapi5fluid4View4PrivESt14default_deleteIS4_EEcvbEv(ptr noundef nonnull align 8 dereferenceable(8) %5) #3
  ret i1 %6
}

; Function Attrs: mustprogress nounwind uwtable
define linkonce_odr hidden noundef nonnull align 8 dereferenceable(8) ptr @_ZNK9__gnu_cxx17__normal_iteratorIPKN2cv4gapi5fluid4ViewESt6vectorIS4_SaIS4_EEE4baseEv(ptr noundef nonnull align 8 dereferenceable(8) %0) #7 comdat align 2 {
  %2 = alloca ptr, align 8
  store ptr %0, ptr %2, align 8, !tbaa !227
  %3 = load ptr, ptr %2, align 8
  %4 = getelementptr inbounds nuw %"class.__gnu_cxx::__normal_iterator.173", ptr %3, i32 0, i32 0
  ret ptr %4
}

; Function Attrs: mustprogress nounwind uwtable
define linkonce_odr hidden void @_ZN9__gnu_cxx17__normal_iteratorIPKN2cv4gapi5fluid4ViewESt6vectorIS4_SaIS4_EEEC2ERKS6_(ptr noundef nonnull align 8 dereferenceable(8) %0, ptr noundef nonnull align 8 dereferenceable(8) %1) unnamed_addr #7 comdat align 2 {
  %3 = alloca ptr, align 8
  %4 = alloca ptr, align 8
  store ptr %0, ptr %3, align 8, !tbaa !227
  store ptr %1, ptr %4, align 8, !tbaa !516
  %5 = load ptr, ptr %3, align 8
  %6 = getelementptr inbounds nuw %"class.__gnu_cxx::__normal_iterator.173", ptr %5, i32 0, i32 0
  %7 = load ptr, ptr %4, align 8, !tbaa !516
  %8 = load ptr, ptr %7, align 8, !tbaa !144
  store ptr %8, ptr %6, align 8, !tbaa !229
  ret void
}

; Function Attrs: mustprogress nounwind uwtable
define linkonce_odr hidden noundef nonnull align 8 dereferenceable(8) ptr @_ZN9__gnu_cxx17__normal_iteratorIPKN2cv4gapi5fluid4ViewESt6vectorIS4_SaIS4_EEEppEv(ptr noundef nonnull align 8 dereferenceable(8) %0) #7 comdat align 2 {
  %2 = alloca ptr, align 8
  store ptr %0, ptr %2, align 8, !tbaa !227
  %3 = load ptr, ptr %2, align 8
  %4 = getelementptr inbounds nuw %"class.__gnu_cxx::__normal_iterator.173", ptr %3, i32 0, i32 0
  %5 = load ptr, ptr %4, align 8, !tbaa !229
  %6 = getelementptr inbounds nuw %"class.cv::gapi::fluid::View", ptr %5, i32 1
  store ptr %6, ptr %4, align 8, !tbaa !229
  ret ptr %3
}

; Function Attrs: inlinehint mustprogress nounwind uwtable
define linkonce_odr hidden noundef zeroext i1 @_ZNK2cv4gapi5fluid4ViewcvbEv(ptr noundef nonnull align 8 dereferenceable(16) %0) #8 comdat align 2 {
  %2 = alloca ptr, align 8
  store ptr %0, ptr %2, align 8, !tbaa !144
  %3 = load ptr, ptr %2, align 8
  %4 = getelementptr inbounds nuw %"class.cv::gapi::fluid::View", ptr %3, i32 0, i32 0
  %5 = call noundef zeroext i1 @_ZStneIN2cv4gapi5fluid4View4PrivESt14default_deleteIS4_EEbRKSt10unique_ptrIT_T0_EDn(ptr noundef nonnull align 8 dereferenceable(8) %4, ptr null) #3
  ret i1 %5
}

; Function Attrs: mustprogress nounwind uwtable
define linkonce_odr hidden noundef nonnull align 8 dereferenceable(16) ptr @_ZNK9__gnu_cxx17__normal_iteratorIPKN2cv4gapi5fluid4ViewESt6vectorIS4_SaIS4_EEEdeEv(ptr noundef nonnull align 8 dereferenceable(8) %0) #7 comdat align 2 {
  %2 = alloca ptr, align 8
  store ptr %0, ptr %2, align 8, !tbaa !227
  %3 = load ptr, ptr %2, align 8
  %4 = getelementptr inbounds nuw %"class.__gnu_cxx::__normal_iterator.173", ptr %3, i32 0, i32 0
  %5 = load ptr, ptr %4, align 8, !tbaa !229
  ret ptr %5
}

; Function Attrs: inlinehint mustprogress nounwind uwtable
define linkonce_odr noundef zeroext i1 @_ZN9__gnu_cxxneIPKN2cv4gapi5fluid4ViewESt6vectorIS4_SaIS4_EEEEbRKNS_17__normal_iteratorIT_T0_EESF_(ptr noundef nonnull align 8 dereferenceable(8) %0, ptr noundef nonnull align 8 dereferenceable(8) %1) #8 comdat {
  %3 = alloca ptr, align 8
  %4 = alloca ptr, align 8
  store ptr %0, ptr %3, align 8, !tbaa !227
  store ptr %1, ptr %4, align 8, !tbaa !227
  %5 = load ptr, ptr %3, align 8, !tbaa !227
  %6 = call noundef nonnull align 8 dereferenceable(8) ptr @_ZNK9__gnu_cxx17__normal_iteratorIPKN2cv4gapi5fluid4ViewESt6vectorIS4_SaIS4_EEE4baseEv(ptr noundef nonnull align 8 dereferenceable(8) %5) #3
  %7 = load ptr, ptr %6, align 8, !tbaa !144
  %8 = load ptr, ptr %4, align 8, !tbaa !227
  %9 = call noundef nonnull align 8 dereferenceable(8) ptr @_ZNK9__gnu_cxx17__normal_iteratorIPKN2cv4gapi5fluid4ViewESt6vectorIS4_SaIS4_EEE4baseEv(ptr noundef nonnull align 8 dereferenceable(8) %8) #3
  %10 = load ptr, ptr %9, align 8, !tbaa !144
  %11 = icmp ne ptr %7, %10
  ret i1 %11
}

; Function Attrs: mustprogress nounwind uwtable
define linkonce_odr hidden ptr @_ZNKSt6vectorIN2cv4gapi5fluid4ViewESaIS3_EE3endEv(ptr noundef nonnull align 8 dereferenceable(24) %0) #7 comdat align 2 {
  %2 = alloca %"class.__gnu_cxx::__normal_iterator.173", align 8
  %3 = alloca ptr, align 8
  store ptr %0, ptr %3, align 8, !tbaa !104
  %4 = load ptr, ptr %3, align 8
  %5 = getelementptr inbounds nuw %"struct.std::_Vector_base.22", ptr %4, i32 0, i32 0
  %6 = getelementptr inbounds nuw %"struct.std::_Vector_base<cv::gapi::fluid::View, std::allocator<cv::gapi::fluid::View>>::_Vector_impl_data", ptr %5, i32 0, i32 1
  call void @_ZN9__gnu_cxx17__normal_iteratorIPKN2cv4gapi5fluid4ViewESt6vectorIS4_SaIS4_EEEC2ERKS6_(ptr noundef nonnull align 8 dereferenceable(8) %2, ptr noundef nonnull align 8 dereferenceable(8) %6) #3
  %7 = getelementptr inbounds nuw %"class.__gnu_cxx::__normal_iterator.173", ptr %2, i32 0, i32 0
  %8 = load ptr, ptr %7, align 8
  ret ptr %8
}

; Function Attrs: mustprogress nounwind uwtable
define linkonce_odr hidden ptr @_ZNKSt6vectorIN2cv4gapi5fluid4ViewESaIS3_EE5beginEv(ptr noundef nonnull align 8 dereferenceable(24) %0) #7 comdat align 2 {
  %2 = alloca %"class.__gnu_cxx::__normal_iterator.173", align 8
  %3 = alloca ptr, align 8
  store ptr %0, ptr %3, align 8, !tbaa !104
  %4 = load ptr, ptr %3, align 8
  %5 = getelementptr inbounds nuw %"struct.std::_Vector_base.22", ptr %4, i32 0, i32 0
  %6 = getelementptr inbounds nuw %"struct.std::_Vector_base<cv::gapi::fluid::View, std::allocator<cv::gapi::fluid::View>>::_Vector_impl_data", ptr %5, i32 0, i32 0
  call void @_ZN9__gnu_cxx17__normal_iteratorIPKN2cv4gapi5fluid4ViewESt6vectorIS4_SaIS4_EEEC2ERKS6_(ptr noundef nonnull align 8 dereferenceable(8) %2, ptr noundef nonnull align 8 dereferenceable(8) %6) #3
  %7 = getelementptr inbounds nuw %"class.__gnu_cxx::__normal_iterator.173", ptr %2, i32 0, i32 0
  %8 = load ptr, ptr %7, align 8
  ret ptr %8
}

; Function Attrs: mustprogress uwtable
define hidden noundef zeroext i1 @_ZNK2cv5gimpl10FluidAgent7canReadEv(ptr noundef nonnull align 8 dereferenceable(360) %0) #4 align 2 {
  %2 = alloca i1, align 1
  %3 = alloca ptr, align 8
  %4 = alloca ptr, align 8
  %5 = alloca %"class.__gnu_cxx::__normal_iterator.173", align 8
  %6 = alloca %"class.__gnu_cxx::__normal_iterator.173", align 8
  %7 = alloca i32, align 4
  %8 = alloca ptr, align 8
  store ptr %0, ptr %3, align 8, !tbaa !19
  %9 = load ptr, ptr %3, align 8
  call void @llvm.lifetime.start.p0(i64 8, ptr %4) #3
  %10 = getelementptr inbounds nuw %"struct.cv::gimpl::FluidAgent", ptr %9, i32 0, i32 7
  store ptr %10, ptr %4, align 8, !tbaa !104
  call void @llvm.lifetime.start.p0(i64 8, ptr %5) #3
  %11 = load ptr, ptr %4, align 8, !tbaa !104
  %12 = call ptr @_ZNKSt6vectorIN2cv4gapi5fluid4ViewESaIS3_EE5beginEv(ptr noundef nonnull align 8 dereferenceable(24) %11) #3
  %13 = getelementptr inbounds nuw %"class.__gnu_cxx::__normal_iterator.173", ptr %5, i32 0, i32 0
  store ptr %12, ptr %13, align 8
  call void @llvm.lifetime.start.p0(i64 8, ptr %6) #3
  %14 = load ptr, ptr %4, align 8, !tbaa !104
  %15 = call ptr @_ZNKSt6vectorIN2cv4gapi5fluid4ViewESaIS3_EE3endEv(ptr noundef nonnull align 8 dereferenceable(24) %14) #3
  %16 = getelementptr inbounds nuw %"class.__gnu_cxx::__normal_iterator.173", ptr %6, i32 0, i32 0
  store ptr %15, ptr %16, align 8
  br label %17

17:                                               ; preds = %33, %1
  %18 = call noundef zeroext i1 @_ZN9__gnu_cxxneIPKN2cv4gapi5fluid4ViewESt6vectorIS4_SaIS4_EEEEbRKNS_17__normal_iteratorIT_T0_EESF_(ptr noundef nonnull align 8 dereferenceable(8) %5, ptr noundef nonnull align 8 dereferenceable(8) %6) #3
  br i1 %18, label %20, label %19

19:                                               ; preds = %17
  store i32 2, ptr %7, align 4
  br label %35

20:                                               ; preds = %17
  call void @llvm.lifetime.start.p0(i64 8, ptr %8) #3
  %21 = call noundef nonnull align 8 dereferenceable(16) ptr @_ZNK9__gnu_cxx17__normal_iteratorIPKN2cv4gapi5fluid4ViewESt6vectorIS4_SaIS4_EEEdeEv(ptr noundef nonnull align 8 dereferenceable(8) %5) #3
  store ptr %21, ptr %8, align 8, !tbaa !144
  %22 = load ptr, ptr %8, align 8, !tbaa !144
  %23 = call noundef zeroext i1 @_ZNK2cv4gapi5fluid4ViewcvbEv(ptr noundef nonnull align 8 dereferenceable(16) %22)
  br i1 %23, label %24, label %29

24:                                               ; preds = %20
  %25 = load ptr, ptr %8, align 8, !tbaa !144
  %26 = call noundef zeroext i1 @_ZNK2cv4gapi5fluid4View5readyEv(ptr noundef nonnull align 8 dereferenceable(16) %25)
  br i1 %26, label %28, label %27

27:                                               ; preds = %24
  store i1 false, ptr %2, align 1
  store i32 1, ptr %7, align 4
  br label %30

28:                                               ; preds = %24
  br label %29

29:                                               ; preds = %28, %20
  store i32 0, ptr %7, align 4
  br label %30

30:                                               ; preds = %29, %27
  call void @llvm.lifetime.end.p0(i64 8, ptr %8) #3
  %31 = load i32, ptr %7, align 4
  switch i32 %31, label %35 [
    i32 0, label %32
  ]

32:                                               ; preds = %30
  br label %33

33:                                               ; preds = %32
  %34 = call noundef nonnull align 8 dereferenceable(8) ptr @_ZN9__gnu_cxx17__normal_iteratorIPKN2cv4gapi5fluid4ViewESt6vectorIS4_SaIS4_EEEppEv(ptr noundef nonnull align 8 dereferenceable(8) %5) #3
  br label %17

35:                                               ; preds = %30, %19
  call void @llvm.lifetime.end.p0(i64 8, ptr %6) #3
  call void @llvm.lifetime.end.p0(i64 8, ptr %5) #3
  call void @llvm.lifetime.end.p0(i64 8, ptr %4) #3
  %36 = load i32, ptr %7, align 4
  switch i32 %36, label %40 [
    i32 2, label %37
    i32 1, label %38
  ]

37:                                               ; preds = %35
  store i1 true, ptr %2, align 1
  br label %38

38:                                               ; preds = %37, %35
  %39 = load i1, ptr %2, align 1
  ret i1 %39

40:                                               ; preds = %35
  unreachable
}