; Function Attrs: mustprogress uwtable
define hidden noundef zeroext i1 @_ZNK2cv5gimpl10FluidAgent7canReadEv(ptr noundef nonnull readonly align 8 captures(none) dereferenceable(360) %0) local_unnamed_addr #3 align 2 {
  %2 = getelementptr inbounds nuw i8, ptr %0, i64 304
  %3 = load ptr, ptr %2, align 8, !tbaa !172
  %4 = getelementptr inbounds nuw i8, ptr %0, i64 312
  %5 = load ptr, ptr %4, align 8, !tbaa !172
  %.not13 = icmp eq ptr %3, %5
  br i1 %.not13, label %._crit_edge, label %.lr.ph

.lr.ph:                                           ; preds = %1, %.critedge
  %.sroa.09.014 = phi ptr [ %9, %.critedge ], [ %3, %1 ]
  %6 = load ptr, ptr %.sroa.09.014, align 8, !tbaa !178
  %.not12 = icmp eq ptr %6, null
  br i1 %.not12, label %.critedge, label %7

7:                                                ; preds = %.lr.ph
  %8 = tail call noundef zeroext i1 @_ZNK2cv4gapi5fluid4View5readyEv(ptr noundef nonnull align 8 dereferenceable(16) %.sroa.09.014)
  br i1 %8, label %.critedge, label %._crit_edge

.critedge:                                        ; preds = %7, %.lr.ph
  %9 = getelementptr inbounds nuw i8, ptr %.sroa.09.014, i64 16
  %.not = icmp eq ptr %9, %5
  br i1 %.not, label %._crit_edge, label %.lr.ph

._crit_edge:                                      ; preds = %.critedge, %7, %1
  %.not.lcssa = phi i1 [ true, %1 ], [ false, %7 ], [ true, %.critedge ]
  ret i1 %.not.lcssa
}